target datalayout = "e-m:e-p270:32:32-p271:32:32-p272:64:64-i64:64-i128:128-f80:128-n8:16:32:64-S128"
target triple = "x86_64-pc-linux-gnu"

%class.macro_util = type { ptr, %class.bv_util, %class.arith_util, %class.arith_rewriter, %class.bv_rewriter, ptr, ptr }
%class.bv_util = type { %class.bv_recognizers, ptr, ptr }
%class.bv_recognizers = type { i32 }
%class.arith_util = type { ptr, ptr }
%class.arith_rewriter = type { %class.poly_rewriter.base, i8, i8, i8, i8, i8, i8, i8, i8, i32 }
%class.poly_rewriter.base = type <{ %class.arith_rewriter_core.base, [5 x i8], ptr, %class.obj_map, i8, i8, [2 x i8], i32, i8, i8, i8, i8 }>
%class.arith_rewriter_core.base = type <{ ptr, %class.arith_util, %class.scoped_ptr, i8, i8, i8 }>
%class.scoped_ptr = type { ptr }
%class.obj_map = type { %class.core_hashtable }
%class.core_hashtable = type <{ ptr, i32, i32, i32, [4 x i8] }>
%class.bv_rewriter = type <{ %class.poly_rewriter.base.1, [4 x i8], %class.mk_extract_proc, %class.arith_util, i8, i8, i8, i8, i8, i8, i8, i8, i8, i8, i8, i8, i8, [3 x i8] }>
%class.poly_rewriter.base.1 = type <{ %class.bv_rewriter_core, ptr, %class.obj_map, i8, i8, [2 x i8], i32, i8, i8, i8, i8 }>
%class.bv_rewriter_core = type { ptr, %class.bv_util, %class.obj_ref }
%class.obj_ref = type { ptr, ptr }
%class.mk_extract_proc = type { ptr, i32, i32, ptr, ptr }

; Function Attrs: mustprogress nounwind uwtable
define linkonce_odr hidden noundef ptr @_ZNK7obj_refI4expr11ast_managerEcvPS0_Ev(ptr noundef nonnull align 8 dereferenceable(16) %0) #7 comdat align 2 {
  %2 = alloca ptr, align 8
  store ptr %0, ptr %2, align 8, !tbaa !63
  %3 = load ptr, ptr %2, align 8
  %4 = getelementptr inbounds nuw %class.obj_ref, ptr %3, i32 0, i32 0
  %5 = load ptr, ptr %4, align 8, !tbaa !77
  ret ptr %5
}

; Function Attrs: mustprogress nounwind uwtable
define linkonce_odr hidden void @_ZN7obj_refI4expr11ast_managerEC2ERS1_(ptr noundef nonnull align 8 dereferenceable(16) %0, ptr noundef nonnull align 8 dereferenceable(976) %1) unnamed_addr #7 comdat align 2 {
  %3 = alloca ptr, align 8
  %4 = alloca ptr, align 8
  store ptr %0, ptr %3, align 8, !tbaa !63
  store ptr %1, ptr %4, align 8, !tbaa !8
  %5 = load ptr, ptr %3, align 8
  %6 = getelementptr inbounds nuw %class.obj_ref, ptr %5, i32 0, i32 0
  store ptr null, ptr %6, align 8, !tbaa !77
  %7 = getelementptr inbounds nuw %class.obj_ref, ptr %5, i32 0, i32 1
  %8 = load ptr, ptr %4, align 8, !tbaa !8
  store ptr %8, ptr %7, align 8, !tbaa !8
  ret void
}

; Function Attrs: mustprogress uwtable
define hidden void @_ZN10macro_util25add_arith_macro_candidateEP3appjP4exprS3_bbRNS_16macro_candidatesE(ptr noundef nonnull align 8 dereferenceable(320) %0, ptr noundef %1, i32 noundef %2, ptr noundef %3, ptr noundef %4, i1 noundef zeroext %5, i1 noundef zeroext %6, ptr noundef nonnull align 8 dereferenceable(64) %7) #4 align 2 personality ptr @__gxx_personality_v0 {
  %9 = alloca ptr, align 8
  %10 = alloca ptr, align 8
  %11 = alloca i32, align 4
  %12 = alloca ptr, align 8
  %13 = alloca ptr, align 8
  %14 = alloca i8, align 1
  %15 = alloca i8, align 1
  %16 = alloca ptr, align 8
  %17 = alloca %class.obj_ref, align 8
  %18 = alloca ptr, align 8
  %19 = alloca i32, align 4
  store ptr %0, ptr %9, align 8, !tbaa !3
  store ptr %1, ptr %10, align 8, !tbaa !84
  store i32 %2, ptr %11, align 4, !tbaa !67
  store ptr %3, ptr %12, align 8, !tbaa !50
  store ptr %4, ptr %13, align 8, !tbaa !50
  %20 = zext i1 %5 to i8
  store i8 %20, ptr %14, align 1, !tbaa !114
  %21 = zext i1 %6 to i8
  store i8 %21, ptr %15, align 1, !tbaa !114
  store ptr %7, ptr %16, align 8, !tbaa !228
  %22 = load ptr, ptr %9, align 8
  call void @llvm.lifetime.start.p0(i64 16, ptr %17) #3
  %23 = getelementptr inbounds nuw %class.macro_util, ptr %22, i32 0, i32 0
  %24 = load ptr, ptr %23, align 8, !tbaa !109
  call void @_ZN7obj_refI4expr11ast_managerEC2ERS1_(ptr noundef nonnull align 8 dereferenceable(16) %17, ptr noundef nonnull align 8 dereferenceable(976) %24)
  %25 = load i8, ptr %15, align 1, !tbaa !114, !range !116, !noundef !117
  %26 = trunc i8 %25 to i1
  br i1 %26, label %34, label %27

27:                                               ; preds = %8
  %28 = load ptr, ptr %13, align 8, !tbaa !50
  invoke void @_ZN10macro_util23get_rest_clause_as_condEP4exprR7obj_refIS0_11ast_managerE(ptr noundef nonnull align 8 dereferenceable(320) %22, ptr noundef %28, ptr noundef nonnull align 8 dereferenceable(16) %17)
          to label %29 unwind label %30

29:                                               ; preds = %27
  br label %34

30:                                               ; preds = %39, %34, %27
  %31 = landingpad { ptr, i32 }
          cleanup
  %32 = extractvalue { ptr, i32 } %31, 0
  store ptr %32, ptr %18, align 8
  %33 = extractvalue { ptr, i32 } %31, 1
  store i32 %33, ptr %19, align 4
  call void @_ZN7obj_refI4expr11ast_managerED2Ev(ptr noundef nonnull align 8 dereferenceable(16) %17) #3
  call void @llvm.lifetime.end.p0(i64 16, ptr %17) #3
  br label %46

34:                                               ; preds = %29, %8
  %35 = load ptr, ptr %10, align 8, !tbaa !84
  %36 = load i32, ptr %11, align 4, !tbaa !67
  %37 = load ptr, ptr %12, align 8, !tbaa !50
  %38 = invoke noundef ptr @_ZNK7obj_refI4expr11ast_managerEcvPS0_Ev(ptr noundef nonnull align 8 dereferenceable(16) %17)
          to label %39 unwind label %30

39:                                               ; preds = %34
  %40 = load i8, ptr %14, align 1, !tbaa !114, !range !116, !noundef !117
  %41 = trunc i8 %40 to i1
  %42 = load i8, ptr %15, align 1, !tbaa !114, !range !116, !noundef !117
  %43 = trunc i8 %42 to i1
  %44 = load ptr, ptr %16, align 8, !tbaa !228
  invoke void @_ZN10macro_util18insert_quasi_macroEP3appjP4exprS3_bbbRNS_16macro_candidatesE(ptr noundef nonnull align 8 dereferenceable(320) %22, ptr noundef %35, i32 noundef %36, ptr noundef %37, ptr noundef %38, i1 noundef zeroext %41, i1 noundef zeroext true, i1 noundef zeroext %43, ptr noundef nonnull align 8 dereferenceable(64) %44)
          to label %45 unwind label %30

45:                                               ; preds = %39
  call void @_ZN7obj_refI4expr11ast_managerED2Ev(ptr noundef nonnull align 8 dereferenceable(16) %17) #3
  call void @llvm.lifetime.end.p0(i64 16, ptr %17) #3
  ret void

46:                                               ; preds = %30
  %47 = load ptr, ptr %18, align 8
  %48 = load i32, ptr %19, align 4
  %49 = insertvalue { ptr, i32 } poison, ptr %47, 0
  %50 = insertvalue { ptr, i32 } %49, i32 %48, 1
  resume { ptr, i32 } %50
}