; Function Attrs: mustprogress uwtable
define hidden void @_ZN10macro_util25add_arith_macro_candidateEP3appjP4exprS3_bbRNS_16macro_candidatesE(ptr noundef nonnull readonly align 8 captures(none) dereferenceable(320) %0, ptr noundef captures(address) %1, i32 noundef %2, ptr noundef %3, ptr noundef captures(address) %4, i1 noundef zeroext %5, i1 noundef zeroext %6, ptr noundef nonnull align 8 dereferenceable(64) %7) local_unnamed_addr #3 align 2 personality ptr @__gxx_personality_v0 {
  %9 = alloca %class.obj_ref, align 8
  call void @llvm.lifetime.start.p0(i64 16, ptr nonnull %9) #22
  %10 = load ptr, ptr %0, align 8, !tbaa !108
  store ptr null, ptr %9, align 8, !tbaa !35
  %11 = getelementptr inbounds nuw i8, ptr %9, i64 8
  store ptr %10, ptr %11, align 8, !tbaa !3
  br i1 %6, label %15, label %12

12:                                               ; preds = %8
  invoke void @_ZN10macro_util23get_rest_clause_as_condEP4exprR7obj_refIS0_11ast_managerE(ptr noundef nonnull align 8 dereferenceable(320) %0, ptr noundef %4, ptr noundef nonnull align 8 dereferenceable(16) %9)
          to label %._crit_edge unwind label %13

._crit_edge:                                      ; preds = %12
  %.pre = load ptr, ptr %9, align 8, !tbaa !35
  br label %15

13:                                               ; preds = %15, %12
  %14 = landingpad { ptr, i32 }
          cleanup
  call void @_ZN7obj_refI4expr11ast_managerED2Ev(ptr noundef nonnull align 8 dereferenceable(16) %9) #22
  call void @llvm.lifetime.end.p0(i64 16, ptr nonnull %9) #22
  resume { ptr, i32 } %14

15:                                               ; preds = %._crit_edge, %8
  %16 = phi ptr [ %.pre, %._crit_edge ], [ null, %8 ]
  invoke void @_ZN10macro_util18insert_quasi_macroEP3appjP4exprS3_bbbRNS_16macro_candidatesE(ptr noundef nonnull align 8 dereferenceable(320) %0, ptr noundef %1, i32 noundef %2, ptr noundef %3, ptr noundef %16, i1 noundef zeroext %5, i1 noundef zeroext true, i1 noundef zeroext %6, ptr noundef nonnull align 8 dereferenceable(64) %7)
          to label %17 unwind label %13

17:                                               ; preds = %15
  %18 = load ptr, ptr %9, align 8, !tbaa !35
  %.not.i.i = icmp eq ptr %18, null
  br i1 %.not.i.i, label %_ZN7obj_refI4expr11ast_managerED2Ev.exit, label %19

19:                                               ; preds = %17
  %20 = load ptr, ptr %11, align 8, !tbaa !75
  %21 = getelementptr inbounds nuw i8, ptr %18, i64 8
  %22 = load i32, ptr %21, align 4, !tbaa !74
  %23 = add i32 %22, -1
  store i32 %23, ptr %21, align 4, !tbaa !74
  %24 = icmp eq i32 %23, 0
  br i1 %24, label %25, label %_ZN7obj_refI4expr11ast_managerED2Ev.exit

25:                                               ; preds = %19
  invoke void @_ZN11ast_manager11delete_nodeEP3ast(ptr noundef nonnull align 8 dereferenceable(976) %20, ptr noundef nonnull %18)
          to label %_ZN7obj_refI4expr11ast_managerED2Ev.exit unwind label %26

26:                                               ; preds = %25
  %27 = landingpad { ptr, i32 }
          catch ptr null
  %28 = extractvalue { ptr, i32 } %27, 0
  call void @__clang_call_terminate(ptr %28) #23
  unreachable

_ZN7obj_refI4expr11ast_managerED2Ev.exit:         ; preds = %17, %19, %25
  call void @llvm.lifetime.end.p0(i64 16, ptr nonnull %9) #22
  ret void
}